target datalayout = "e-m:e-p270:32:32-p271:32:32-p272:64:64-i64:64-i128:128-f80:128-n8:16:32:64-S128"
target triple = "x86_64-pc-linux-gnu"

%struct.ParseContext_ = type { %struct.TokenData, i32, %union.SourceSpan, %union.SourceSpan, ptr, %struct.Lexer }
%struct.TokenData = type { ptr, i64, %union.anon.86 }
%union.anon.86 = type { %struct.anon.89 }
%struct.anon.89 = type { %struct.Int128_, i8 }
%struct.Int128_ = type { i64, i64 }
%union.SourceSpan = type { i64 }
%struct.Lexer = type { ptr, ptr, ptr, ptr, i32, i32, ptr, ptr, ptr, %struct.TokenData, %union.SourceSpan, i32, i32 }
%struct.Expr_ = type { ptr, %union.SourceSpan, i16, %union.anon.30 }
%union.anon.30 = type { %struct.ExprAnySwitch }
%struct.ExprAnySwitch = type { i8, %union.anon.32 }
%union.anon.32 = type { %struct.anon.33 }
%struct.anon.33 = type { ptr, %union.SourceSpan, ptr }
%struct.anon.0 = type { i16, i8, i8, i32 }

@poisoned_expr = external global ptr, align 8
@.str.22 = private unnamed_addr constant [15 x i8] c"Expected '%s'.\00", align 1

; Function Attrs: nounwind uwtable
define internal i64 @extend_span_with_token(i64 %0, i64 %1) #0 {
  %3 = alloca %union.SourceSpan, align 8
  %4 = alloca %union.SourceSpan, align 8
  %5 = alloca %union.SourceSpan, align 8
  %6 = getelementptr inbounds %union.SourceSpan, ptr %4, i32 0, i32 0
  store i64 %0, ptr %6, align 8
  %7 = getelementptr inbounds %union.SourceSpan, ptr %5, i32 0, i32 0
  store i64 %1, ptr %7, align 8
  %8 = getelementptr inbounds %struct.anon.0, ptr %4, i32 0, i32 3
  %9 = load i32, ptr %8, align 4
  %10 = getelementptr inbounds %struct.anon.0, ptr %5, i32 0, i32 3
  %11 = load i32, ptr %10, align 4
  %12 = icmp ne i32 %9, %11
  br i1 %12, label %13, label %14

13:                                               ; preds = %2
  call void @llvm.memcpy.p0.p0.i64(ptr align 8 %3, ptr align 8 %4, i64 8, i1 false)
  br label %28

14:                                               ; preds = %2
  %15 = getelementptr inbounds %struct.anon.0, ptr %5, i32 0, i32 2
  %16 = load i8, ptr %15, align 1
  %17 = zext i8 %16 to i32
  %18 = getelementptr inbounds %struct.anon.0, ptr %5, i32 0, i32 1
  %19 = load i8, ptr %18, align 2
  %20 = zext i8 %19 to i32
  %21 = add nsw i32 %17, %20
  %22 = getelementptr inbounds %struct.anon.0, ptr %4, i32 0, i32 2
  %23 = load i8, ptr %22, align 1
  %24 = zext i8 %23 to i32
  %25 = sub nsw i32 %21, %24
  %26 = trunc i32 %25 to i8
  %27 = getelementptr inbounds %struct.anon.0, ptr %4, i32 0, i32 1
  store i8 %26, ptr %27, align 2
  call void @llvm.memcpy.p0.p0.i64(ptr align 8 %3, ptr align 8 %4, i64 8, i1 false)
  br label %28

28:                                               ; preds = %14, %13
  %29 = getelementptr inbounds %union.SourceSpan, ptr %3, i32 0, i32 0
  %30 = load i64, ptr %29, align 8
  ret i64 %30
}

; Function Attrs: nounwind uwtable
define dso_local ptr @parse_expr(ptr noundef %0) #0 {
  %2 = alloca ptr, align 8
  store ptr %0, ptr %2, align 8
  %3 = load ptr, ptr %2, align 8
  %4 = call ptr @parse_precedence(ptr noundef %3, i32 noundef 1)
  ret ptr %4
}

; Function Attrs: nounwind uwtable
define internal ptr @parse_ct_is_const(ptr noundef %0, ptr noundef %1) #0 {
  %3 = alloca ptr, align 8
  %4 = alloca i32, align 4
  %5 = alloca i1, align 1
  %6 = alloca ptr, align 8
  %7 = alloca i32, align 4
  %8 = alloca ptr, align 8
  %9 = alloca i32, align 4
  %10 = alloca i1, align 1
  %11 = alloca ptr, align 8
  %12 = alloca i32, align 4
  %13 = alloca ptr, align 8
  %14 = alloca i32, align 4
  %15 = alloca ptr, align 8
  %16 = alloca ptr, align 8
  %17 = alloca ptr, align 8
  %18 = alloca ptr, align 8
  %19 = alloca ptr, align 8
  %20 = alloca ptr, align 8
  %21 = alloca %union.SourceSpan, align 8
  store ptr %0, ptr %17, align 8
  store ptr %1, ptr %18, align 8
  %22 = load ptr, ptr %17, align 8
  %23 = getelementptr inbounds %struct.ParseContext_, ptr %22, i32 0, i32 2
  %24 = getelementptr inbounds %union.SourceSpan, ptr %23, i32 0, i32 0
  %25 = load i64, ptr %24, align 8
  %26 = call ptr @expr_new(i32 noundef 19, i64 %25)
  store ptr %26, ptr %19, align 8
  %27 = load ptr, ptr %17, align 8
  store ptr %27, ptr %13, align 8
  store i32 169, ptr %14, align 4
  %28 = load ptr, ptr %13, align 8
  call void @advance(ptr noundef %28) #5
  br label %29

29:                                               ; preds = %2
  %30 = load ptr, ptr %17, align 8
  store ptr %30, ptr %6, align 8
  store i32 19, ptr %7, align 4
  %31 = load ptr, ptr %6, align 8
  %32 = load i32, ptr %7, align 4
  store ptr %31, ptr %3, align 8
  store i32 %32, ptr %4, align 4
  %33 = load ptr, ptr %3, align 8
  %34 = getelementptr inbounds %struct.ParseContext_, ptr %33, i32 0, i32 1
  %35 = load i32, ptr %34, align 8
  %36 = load i32, ptr %4, align 4
  %37 = icmp eq i32 %35, %36
  br i1 %37, label %38, label %39

38:                                               ; preds = %29
  store i1 true, ptr %5, align 1
  br label %45

39:                                               ; preds = %29
  %40 = load ptr, ptr %6, align 8
  %41 = getelementptr inbounds %struct.ParseContext_, ptr %40, i32 0, i32 2
  %42 = load i32, ptr %7, align 4
  %43 = call ptr @token_type_to_string(i32 noundef %42) #5
  %44 = load i64, ptr %41, align 8
  call void (i64, ptr, ...) @sema_error_at(i64 %44, ptr noundef @.str.22, ptr noundef %43) #5
  store i1 false, ptr %5, align 1
  br label %45

45:                                               ; preds = %39, %38
  %46 = load i1, ptr %5, align 1
  br i1 %46, label %49, label %47

47:                                               ; preds = %45
  %48 = load ptr, ptr @poisoned_expr, align 8
  store ptr %48, ptr %16, align 8
  br label %110

49:                                               ; preds = %45
  %50 = load ptr, ptr %17, align 8
  call void @advance(ptr noundef %50)
  br label %51

51:                                               ; preds = %49
  %52 = load ptr, ptr %17, align 8
  %53 = call ptr @parse_expr(ptr noundef %52)
  store ptr %53, ptr %20, align 8
  %54 = load ptr, ptr %20, align 8
  store ptr %54, ptr %15, align 8
  %55 = load ptr, ptr %15, align 8
  %56 = icmp eq ptr %55, null
  br i1 %56, label %64, label %57

57:                                               ; preds = %51
  %58 = load ptr, ptr %15, align 8
  %59 = getelementptr inbounds %struct.Expr_, ptr %58, i32 0, i32 2
  %60 = load i16, ptr %59, align 8
  %61 = and i16 %60, 255
  %62 = zext i16 %61 to i32
  %63 = icmp ne i32 %62, 0
  br label %64

64:                                               ; preds = %57, %51
  %65 = phi i1 [ true, %51 ], [ %63, %57 ]
  br i1 %65, label %68, label %66

66:                                               ; preds = %64
  %67 = load ptr, ptr @poisoned_expr, align 8
  store ptr %67, ptr %16, align 8
  br label %110

68:                                               ; preds = %64
  %69 = load ptr, ptr %20, align 8
  %70 = load ptr, ptr %19, align 8
  %71 = getelementptr inbounds %struct.Expr_, ptr %70, i32 0, i32 3
  store ptr %69, ptr %71, align 8
  br label %72

72:                                               ; preds = %68
  %73 = load ptr, ptr %17, align 8
  store ptr %73, ptr %11, align 8
  store i32 26, ptr %12, align 4
  %74 = load ptr, ptr %11, align 8
  %75 = load i32, ptr %12, align 4
  store ptr %74, ptr %8, align 8
  store i32 %75, ptr %9, align 4
  %76 = load ptr, ptr %8, align 8
  %77 = getelementptr inbounds %struct.ParseContext_, ptr %76, i32 0, i32 1
  %78 = load i32, ptr %77, align 8
  %79 = load i32, ptr %9, align 4
  %80 = icmp eq i32 %78, %79
  br i1 %80, label %81, label %82

81:                                               ; preds = %72
  store i1 true, ptr %10, align 1
  br label %88

82:                                               ; preds = %72
  %83 = load ptr, ptr %11, align 8
  %84 = getelementptr inbounds %struct.ParseContext_, ptr %83, i32 0, i32 2
  %85 = load i32, ptr %12, align 4
  %86 = call ptr @token_type_to_string(i32 noundef %85) #5
  %87 = load i64, ptr %84, align 8
  call void (i64, ptr, ...) @sema_error_at(i64 %87, ptr noundef @.str.22, ptr noundef %86) #5
  store i1 false, ptr %10, align 1
  br label %88

88:                                               ; preds = %82, %81
  %89 = load i1, ptr %10, align 1
  br i1 %89, label %92, label %90

90:                                               ; preds = %88
  %91 = load ptr, ptr @poisoned_expr, align 8
  store ptr %91, ptr %16, align 8
  br label %110

92:                                               ; preds = %88
  %93 = load ptr, ptr %17, align 8
  call void @advance(ptr noundef %93)
  br label %94

94:                                               ; preds = %92
  br label %95

95:                                               ; preds = %94
  %96 = load ptr, ptr %19, align 8
  %97 = getelementptr inbounds %struct.Expr_, ptr %96, i32 0, i32 1
  %98 = load ptr, ptr %19, align 8
  %99 = getelementptr inbounds %struct.Expr_, ptr %98, i32 0, i32 1
  %100 = load ptr, ptr %17, align 8
  %101 = getelementptr inbounds %struct.ParseContext_, ptr %100, i32 0, i32 3
  %102 = getelementptr inbounds %union.SourceSpan, ptr %99, i32 0, i32 0
  %103 = load i64, ptr %102, align 8
  %104 = getelementptr inbounds %union.SourceSpan, ptr %101, i32 0, i32 0
  %105 = load i64, ptr %104, align 8
  %106 = call i64 @extend_span_with_token(i64 %103, i64 %105)
  %107 = getelementptr inbounds %union.SourceSpan, ptr %21, i32 0, i32 0
  store i64 %106, ptr %107, align 8
  call void @llvm.memcpy.p0.p0.i64(ptr align 8 %97, ptr align 8 %21, i64 8, i1 false)
  br label %108

108:                                              ; preds = %95
  %109 = load ptr, ptr %19, align 8
  store ptr %109, ptr %16, align 8
  br label %110

110:                                              ; preds = %108, %90, %66, %47
  %111 = load ptr, ptr %16, align 8
  ret ptr %111
}