; Function Attrs: nounwind uwtable
define internal ptr @parse_ct_is_const(ptr noundef %0, ptr nocapture readnone %1) #1 {
  %3 = getelementptr inbounds i8, ptr %0, i64 48
  %4 = load i64, ptr %3, align 8
  %5 = tail call ptr @expr_new(i32 noundef 19, i64 %4) #8
  tail call void @advance(ptr noundef %0) #8
  %6 = getelementptr inbounds i8, ptr %0, i64 40
  %7 = load i32, ptr %6, align 8
  %8 = icmp eq i32 %7, 19
  br i1 %8, label %.critedge35, label %9

9:                                                ; preds = %2
  %10 = tail call ptr @token_type_to_string(i32 noundef 19) #8
  %11 = load i64, ptr %3, align 8
  tail call void (i64, ptr, ...) @sema_error_at(i64 %11, ptr noundef nonnull @.str.22, ptr noundef %10) #8
  %12 = load ptr, ptr @poisoned_expr, align 8
  br label %42

.critedge35:                                      ; preds = %2
  tail call void @advance(ptr noundef nonnull %0) #8
  %13 = tail call fastcc ptr @parse_precedence(ptr noundef nonnull %0, i32 noundef 1)
  %14 = icmp eq ptr %13, null
  br i1 %14, label %.critedge, label %15

15:                                               ; preds = %.critedge35
  %16 = getelementptr inbounds i8, ptr %13, i64 16
  %17 = load i16, ptr %16, align 8
  %18 = and i16 %17, 255
  %.not = icmp eq i16 %18, 0
  br i1 %.not, label %19, label %.critedge

19:                                               ; preds = %15
  %20 = load ptr, ptr @poisoned_expr, align 8
  br label %42

.critedge:                                        ; preds = %.critedge35, %15
  %21 = getelementptr inbounds i8, ptr %5, i64 24
  store ptr %13, ptr %21, align 8
  %22 = load i32, ptr %6, align 8
  %23 = icmp eq i32 %22, 26
  br i1 %23, label %.critedge37, label %24

24:                                               ; preds = %.critedge
  %25 = tail call ptr @token_type_to_string(i32 noundef 26) #8
  %26 = load i64, ptr %3, align 8
  tail call void (i64, ptr, ...) @sema_error_at(i64 %26, ptr noundef nonnull @.str.22, ptr noundef %25) #8
  %27 = load ptr, ptr @poisoned_expr, align 8
  br label %42

.critedge37:                                      ; preds = %.critedge
  tail call void @advance(ptr noundef nonnull %0) #8
  %28 = getelementptr inbounds i8, ptr %5, i64 8
  %29 = getelementptr inbounds i8, ptr %0, i64 56
  %30 = load i64, ptr %28, align 8
  %31 = load i64, ptr %29, align 8
  %.not.unshifted.i = xor i64 %31, %30
  %.not.i = icmp ult i64 %.not.unshifted.i, 4294967296
  br i1 %.not.i, label %33, label %32

32:                                               ; preds = %.critedge37
  %.sroa.33.0.extract.shift.i = lshr i64 %30, 16
  br label %extend_span_with_token.exit

33:                                               ; preds = %.critedge37
  %.sroa.4.0.extract.shift.i = lshr i64 %30, 24
  %34 = trunc i64 %31 to i32
  %35 = lshr i32 %34, 24
  %36 = lshr i32 %34, 16
  %37 = trunc i64 %.sroa.4.0.extract.shift.i to i32
  %38 = sub i32 %36, %37
  %39 = add i32 %38, %35
  %40 = zext i32 %39 to i64
  br label %extend_span_with_token.exit

extend_span_with_token.exit:                      ; preds = %32, %33
  %.sroa.311.0.i = phi i64 [ %.sroa.33.0.extract.shift.i, %32 ], [ %40, %33 ]
  %.sroa.311.0.insert.ext.i = shl nuw i64 %.sroa.311.0.i, 16
  %.sroa.311.0.insert.shift.i = and i64 %.sroa.311.0.insert.ext.i, 16711680
  %41 = and i64 %30, -16711681
  %.sroa.010.0.insert.insert.i = or disjoint i64 %.sroa.311.0.insert.shift.i, %41
  store i64 %.sroa.010.0.insert.insert.i, ptr %28, align 8
  br label %42

42:                                               ; preds = %extend_span_with_token.exit, %24, %19, %9
  %.032 = phi ptr [ %5, %extend_span_with_token.exit ], [ %27, %24 ], [ %20, %19 ], [ %12, %9 ]
  ret ptr %.032
}